; Function Attrs: mustprogress nounwind uwtable
define hidden noundef zeroext i1 @_ZN14ZGenerationOld8mark_endEv(ptr noundef nonnull align 64 dereferenceable(6720) %0) local_unnamed_addr #0 align 2 {
  %2 = alloca %class.ZPageAllocatorStats, align 8
  %3 = getelementptr inbounds i8, ptr %0, i64 256
  %4 = tail call noundef zeroext i1 @_ZN5ZMark3endEv(ptr noundef nonnull align 64 dereferenceable(2652) %3) #18
  br i1 %4, label %5, label %21

5:                                                ; preds = %1
  %6 = getelementptr inbounds i8, ptr %0, i64 3216
  %7 = load i32, ptr %6, align 16
  %8 = getelementptr inbounds i8, ptr %0, i64 8
  %9 = load i8, ptr %8, align 8
  %10 = icmp eq i8 %9, 1
  %spec.select.i.i = select i1 %10, i64 3, i64 0
  %11 = icmp eq i32 %7, 0
  %12 = zext i1 %11 to i64
  %.2.i.i = add nuw nsw i64 %spec.select.i.i, %12
  %13 = getelementptr inbounds [6 x ptr], ptr @__const._ZN11ZGeneration16log_phase_switchENS_5PhaseES0_.str, i64 0, i64 %.2.i.i
  %14 = load ptr, ptr %13, align 8
  %15 = getelementptr inbounds i8, ptr %0, i64 3220
  %16 = load i32, ptr %15, align 4
  tail call void (ptr, ...) @_ZN6Events20log_zgc_phase_switchEPKcz(ptr noundef nonnull @.str.62, ptr noundef %14, i32 noundef %16)
  store i32 1, ptr %6, align 16
  tail call void @_ZN7ZVerify10after_markEv() #18
  %17 = getelementptr inbounds i8, ptr %0, i64 3224
  %18 = getelementptr inbounds i8, ptr %0, i64 16
  %19 = load ptr, ptr %18, align 16
  call void @_ZNK14ZPageAllocator5statsEP11ZGeneration(ptr dead_on_unwind nonnull writable sret(%class.ZPageAllocatorStats) align 8 %2, ptr noundef nonnull align 8 dereferenceable(609) %19, ptr noundef nonnull %0) #18
  call void @_ZN9ZStatHeap11at_mark_endERK19ZPageAllocatorStats(ptr noundef nonnull align 8 dereferenceable(488) %17, ptr noundef nonnull align 8 dereferenceable(96) %2) #18
  call void @_ZN13ZResurrection5blockEv() #18
  %20 = getelementptr inbounds i8, ptr %0, i64 6680
  call void @_ZN7ZUnload7prepareEv(ptr noundef nonnull align 8 dereferenceable(8) %20) #18
  call void @_ZN11JvmtiTagMap18set_needs_cleaningEv() #18
  call void @_ZN9CodeCache26on_gc_marking_cycle_finishEv() #18
  br label %21

21:                                               ; preds = %1, %5
  ret i1 %4
}